target datalayout = "e-m:e-p270:32:32-p271:32:32-p272:64:64-i64:64-i128:128-f80:128-n8:16:32:64-S128"
target triple = "x86_64-pc-linux-gnu"

@hf_ms_if_midi_in_bjacktype = internal global i32 0, align 4
@hf_ms_if_midi_in_bjackid = internal global i32 0, align 4
@hf_ms_if_midi_in_ijack = internal global i32 0, align 4

; Function Attrs: null_pointer_is_valid sspstrong uwtable
define internal i32 @dissect_ms_if_midi_in_body(ptr noundef %0, i32 noundef %1, ptr noundef %2, ptr noundef %3, ptr noundef %4) #1 {
  %6 = alloca ptr, align 8
  %7 = alloca i32, align 4
  %8 = alloca ptr, align 8
  %9 = alloca ptr, align 8
  %10 = alloca ptr, align 8
  %11 = alloca i32, align 4
  store ptr %0, ptr %6, align 8
  store i32 %1, ptr %7, align 4
  store ptr %2, ptr %8, align 8
  store ptr %3, ptr %9, align 8
  store ptr %4, ptr %10, align 8
  call void @llvm.lifetime.start.p0(i64 4, ptr %11) #11
  %12 = load i32, ptr %7, align 4
  store i32 %12, ptr %11, align 4
  %13 = load ptr, ptr %9, align 8
  %14 = load i32, ptr @hf_ms_if_midi_in_bjacktype, align 4
  %15 = load ptr, ptr %6, align 8
  %16 = load i32, ptr %7, align 4
  %17 = call ptr @proto_tree_add_item(ptr noundef %13, i32 noundef %14, ptr noundef %15, i32 noundef %16, i32 noundef 1, i32 noundef -2147483648)
  %18 = load i32, ptr %7, align 4
  %19 = add i32 %18, 1
  store i32 %19, ptr %7, align 4
  %20 = load ptr, ptr %9, align 8
  %21 = load i32, ptr @hf_ms_if_midi_in_bjackid, align 4
  %22 = load ptr, ptr %6, align 8
  %23 = load i32, ptr %7, align 4
  %24 = call ptr @proto_tree_add_item(ptr noundef %20, i32 noundef %21, ptr noundef %22, i32 noundef %23, i32 noundef 1, i32 noundef -2147483648)
  %25 = load i32, ptr %7, align 4
  %26 = add i32 %25, 1
  store i32 %26, ptr %7, align 4
  %27 = load ptr, ptr %9, align 8
  %28 = load i32, ptr @hf_ms_if_midi_in_ijack, align 4
  %29 = load ptr, ptr %6, align 8
  %30 = load i32, ptr %7, align 4
  %31 = call ptr @proto_tree_add_item(ptr noundef %27, i32 noundef %28, ptr noundef %29, i32 noundef %30, i32 noundef 1, i32 noundef -2147483648)
  %32 = load i32, ptr %7, align 4
  %33 = add i32 %32, 1
  store i32 %33, ptr %7, align 4
  %34 = load i32, ptr %7, align 4
  %35 = load i32, ptr %11, align 4
  %36 = sub i32 %34, %35
  call void @llvm.lifetime.end.p0(i64 4, ptr %11) #11
  ret i32 %36
}