; Function Attrs: null_pointer_is_valid sspstrong uwtable
define internal fastcc void @dissect_ms_if_midi_in_body(ptr noundef %0, ptr noundef %1) unnamed_addr #1 {
  %3 = load i32, ptr @hf_ms_if_midi_in_bjacktype, align 4
  %4 = tail call ptr @proto_tree_add_item(ptr noundef %1, i32 noundef %3, ptr noundef %0, i32 noundef 3, i32 noundef 1, i32 noundef -2147483648)
  %5 = load i32, ptr @hf_ms_if_midi_in_bjackid, align 4
  %6 = tail call ptr @proto_tree_add_item(ptr noundef %1, i32 noundef %5, ptr noundef %0, i32 noundef 4, i32 noundef 1, i32 noundef -2147483648)
  %7 = load i32, ptr @hf_ms_if_midi_in_ijack, align 4
  %8 = tail call ptr @proto_tree_add_item(ptr noundef %1, i32 noundef %7, ptr noundef %0, i32 noundef 5, i32 noundef 1, i32 noundef -2147483648)
  ret void
}